; Function Attrs: mustprogress nofree norecurse nosync nounwind willreturn memory(argmem: readwrite) uwtable
define dso_local void @_ZN5clang9DeclGroupC2EjPPNS_4DeclE(ptr nocapture noundef nonnull writeonly align 8 dereferenceable(8) %0, i32 noundef %1, ptr nocapture noundef readonly %2) unnamed_addr #1 align 2 {
  store i32 %1, ptr %0, align 8
  %.not.i.i.i.i.i.i.i = icmp eq i32 %1, 0
  br i1 %.not.i.i.i.i.i.i.i, label %_ZSt18uninitialized_copyIPPN5clang4DeclES3_ET0_T_S5_S4_.exit, label %4

4:                                                ; preds = %3
  %5 = zext i32 %1 to i64
  %.idx = shl nuw nsw i64 %5, 3
  %6 = getelementptr inbounds i8, ptr %0, i64 8
  tail call void @llvm.memmove.p0.p0.i64(ptr nonnull align 8 %6, ptr align 8 %2, i64 %.idx, i1 false)
  br label %_ZSt18uninitialized_copyIPPN5clang4DeclES3_ET0_T_S5_S4_.exit

_ZSt18uninitialized_copyIPPN5clang4DeclES3_ET0_T_S5_S4_.exit: ; preds = %3, %4
  ret void
}